target datalayout = "e-m:e-p270:32:32-p271:32:32-p272:64:64-i64:64-i128:128-f80:128-n8:16:32:64-S128"
target triple = "x86_64-unknown-linux-gnu"

%"struct.facebook::velox::Timestamp" = type { i64, i64 }
%"class.std::chrono::time_point.1" = type { %"class.std::chrono::duration.2" }
%"class.std::chrono::duration.2" = type { i64 }
%"class.std::chrono::time_point.3" = type { %"class.std::chrono::duration.2" }

@_ZTIN4date20ambiguous_local_timeE = linkonce_odr constant { ptr, ptr, ptr } { ptr getelementptr inbounds (ptr, ptr @_ZTVN10__cxxabiv120__si_class_type_infoE, i64 2), ptr @_ZTSN4date20ambiguous_local_timeE, ptr @_ZTISt13runtime_error }, comdat, align 8
@_ZTIN4date22nonexistent_local_timeE = linkonce_odr constant { ptr, ptr, ptr } { ptr getelementptr inbounds (ptr, ptr @_ZTVN10__cxxabiv120__si_class_type_infoE, i64 2), ptr @_ZTSN4date22nonexistent_local_timeE, ptr @_ZTISt13runtime_error }, comdat, align 8

; Function Attrs: mustprogress nounwind uwtable
define linkonce_odr noundef i64 @_ZNSt6chrono15duration_valuesIlE4zeroEv() #2 comdat align 2 {
entry:
  ret i64 0
}

; Function Attrs: mustprogress nounwind uwtable
define linkonce_odr i64 @_ZNSt6chrono8durationIlSt5ratioILl1ELl1EEE4zeroEv() #2 comdat align 2 personality ptr @__gxx_personality_v0 {
entry:
  %retval = alloca %"class.std::chrono::duration.2", align 8
  %ref.tmp = alloca i64, align 8
  %call = call noundef i64 @_ZNSt6chrono15duration_valuesIlE4zeroEv() #10
  store i64 %call, ptr %ref.tmp, align 8
  invoke void @_ZNSt6chrono8durationIlSt5ratioILl1ELl1EEEC2IlvEERKT_(ptr noundef nonnull align 8 dereferenceable(8) %retval, ptr noundef nonnull align 8 dereferenceable(8) %ref.tmp)
          to label %invoke.cont unwind label %terminate.lpad

invoke.cont:                                      ; preds = %entry
  %coerce.dive = getelementptr inbounds %"class.std::chrono::duration.2", ptr %retval, i32 0, i32 0
  %0 = load i64, ptr %coerce.dive, align 8
  ret i64 %0

terminate.lpad:                                   ; preds = %entry
  %1 = landingpad { ptr, i32 }
          catch ptr null
  %2 = extractvalue { ptr, i32 } %1, 0
  call void @__clang_call_terminate(ptr %2) #11
  unreachable
}

; Function Attrs: mustprogress nounwind uwtable
define linkonce_odr noundef i64 @_ZNKSt6chrono8durationIlSt5ratioILl1ELl1EEE5countEv(ptr noundef nonnull align 8 dereferenceable(8) %this) #2 comdat align 2 {
entry:
  %this.addr = alloca ptr, align 8
  store ptr %this, ptr %this.addr, align 8
  %this1 = load ptr, ptr %this.addr, align 8
  %__r = getelementptr inbounds %"class.std::chrono::duration.2", ptr %this1, i32 0, i32 0
  %0 = load i64, ptr %__r, align 8
  ret i64 %0
}

; Function Attrs: mustprogress nounwind uwtable
define linkonce_odr i64 @_ZNKSt6chrono10time_pointINS_3_V212system_clockENS_8durationIlSt5ratioILl1ELl1EEEEE16time_since_epochEv(ptr noundef nonnull align 8 dereferenceable(8) %this) #2 comdat align 2 {
entry:
  %retval = alloca %"class.std::chrono::duration.2", align 8
  %this.addr = alloca ptr, align 8
  store ptr %this, ptr %this.addr, align 8
  %this1 = load ptr, ptr %this.addr, align 8
  %__d = getelementptr inbounds %"class.std::chrono::time_point.3", ptr %this1, i32 0, i32 0
  call void @llvm.memcpy.p0.p0.i64(ptr align 8 %retval, ptr align 8 %__d, i64 8, i1 false)
  %coerce.dive = getelementptr inbounds %"class.std::chrono::duration.2", ptr %retval, i32 0, i32 0
  %0 = load i64, ptr %coerce.dive, align 8
  ret i64 %0
}

; Function Attrs: mustprogress uwtable
define linkonce_odr i64 @_ZNK4date9time_zone6to_sysINSt6chrono8durationIlSt5ratioILl1ELl1EEEEEENS2_10time_pointINS2_3_V212system_clockENSt11common_typeIJT_S6_EE4typeEEENS7_INS_7local_tESB_EE(ptr noundef nonnull align 8 dereferenceable(64) %this, i64 %tp.coerce) #0 comdat align 2 {
entry:
  %retval = alloca %"class.std::chrono::time_point.3", align 8
  %tp = alloca %"class.std::chrono::time_point.1", align 8
  %this.addr = alloca ptr, align 8
  %agg.tmp = alloca %"class.std::chrono::time_point.1", align 8
  %coerce.dive = getelementptr inbounds %"class.std::chrono::time_point.1", ptr %tp, i32 0, i32 0
  %coerce.dive1 = getelementptr inbounds %"class.std::chrono::duration.2", ptr %coerce.dive, i32 0, i32 0
  store i64 %tp.coerce, ptr %coerce.dive1, align 8
  store ptr %this, ptr %this.addr, align 8
  %this2 = load ptr, ptr %this.addr, align 8
  call void @llvm.memcpy.p0.p0.i64(ptr align 8 %agg.tmp, ptr align 8 %tp, i64 8, i1 false)
  %coerce.dive4 = getelementptr inbounds %"class.std::chrono::time_point.1", ptr %agg.tmp, i32 0, i32 0
  %coerce.dive5 = getelementptr inbounds %"class.std::chrono::duration.2", ptr %coerce.dive4, i32 0, i32 0
  %0 = load i64, ptr %coerce.dive5, align 8
  %call = call i64 @_ZNK4date9time_zone11to_sys_implINSt6chrono8durationIlSt5ratioILl1ELl1EEEEEENS2_10time_pointINS2_3_V212system_clockENSt11common_typeIJT_S6_EE4typeEEENS7_INS_7local_tESB_EENS_6chooseESt17integral_constantIbLb1EE(ptr noundef nonnull align 8 dereferenceable(64) %this2, i64 %0, i32 noundef 0)
  %coerce.dive6 = getelementptr inbounds %"class.std::chrono::time_point.3", ptr %retval, i32 0, i32 0
  %coerce.dive7 = getelementptr inbounds %"class.std::chrono::duration.2", ptr %coerce.dive6, i32 0, i32 0
  store i64 %call, ptr %coerce.dive7, align 8
  %coerce.dive8 = getelementptr inbounds %"class.std::chrono::time_point.3", ptr %retval, i32 0, i32 0
  %coerce.dive9 = getelementptr inbounds %"class.std::chrono::duration.2", ptr %coerce.dive8, i32 0, i32 0
  %1 = load i64, ptr %coerce.dive9, align 8
  ret i64 %1
}

; Function Attrs: mustprogress nounwind uwtable
define linkonce_odr void @_ZNSt6chrono10time_pointINS_3_V212system_clockENS_8durationIlSt5ratioILl1ELl1EEEEEC2Ev(ptr noundef nonnull align 8 dereferenceable(8) %this) unnamed_addr #2 comdat align 2 {
entry:
  %this.addr = alloca ptr, align 8
  store ptr %this, ptr %this.addr, align 8
  %this1 = load ptr, ptr %this.addr, align 8
  %__d = getelementptr inbounds %"class.std::chrono::time_point.3", ptr %this1, i32 0, i32 0
  %call = call i64 @_ZNSt6chrono8durationIlSt5ratioILl1ELl1EEE4zeroEv() #10
  %coerce.dive = getelementptr inbounds %"class.std::chrono::duration.2", ptr %__d, i32 0, i32 0
  store i64 %call, ptr %coerce.dive, align 8
  ret void
}

; Function Attrs: mustprogress nounwind uwtable
define linkonce_odr void @_ZNSt6chrono10time_pointIN4date7local_tENS_8durationIlSt5ratioILl1ELl1EEEEEC2ERKS6_(ptr noundef nonnull align 8 dereferenceable(8) %this, ptr noundef nonnull align 8 dereferenceable(8) %__dur) unnamed_addr #2 comdat align 2 {
entry:
  %this.addr = alloca ptr, align 8
  %__dur.addr = alloca ptr, align 8
  store ptr %this, ptr %this.addr, align 8
  store ptr %__dur, ptr %__dur.addr, align 8
  %this1 = load ptr, ptr %this.addr, align 8
  %__d = getelementptr inbounds %"class.std::chrono::time_point.1", ptr %this1, i32 0, i32 0
  %0 = load ptr, ptr %__dur.addr, align 8
  call void @llvm.memcpy.p0.p0.i64(ptr align 8 %__d, ptr align 8 %0, i64 8, i1 false)
  ret void
}

; Function Attrs: mustprogress nounwind uwtable
define linkonce_odr void @_ZNSt6chrono8durationIlSt5ratioILl1ELl1EEEC2IlvEERKT_(ptr noundef nonnull align 8 dereferenceable(8) %this, ptr noundef nonnull align 8 dereferenceable(8) %__rep) unnamed_addr #2 comdat align 2 {
entry:
  %this.addr = alloca ptr, align 8
  %__rep.addr = alloca ptr, align 8
  store ptr %this, ptr %this.addr, align 8
  store ptr %__rep, ptr %__rep.addr, align 8
  %this1 = load ptr, ptr %this.addr, align 8
  %__r = getelementptr inbounds %"class.std::chrono::duration.2", ptr %this1, i32 0, i32 0
  %0 = load ptr, ptr %__rep.addr, align 8
  %1 = load i64, ptr %0, align 8
  store i64 %1, ptr %__r, align 8
  ret void
}

; Function Attrs: mustprogress uwtable
define void @_ZN8facebook5velox9Timestamp5toGMTERKN4date9time_zoneE(ptr noundef nonnull align 8 dereferenceable(16) %this, ptr noundef nonnull align 8 dereferenceable(64) %zone) #0 align 2 personality ptr @__gxx_personality_v0 {
entry:
  %this.addr = alloca ptr, align 8
  %zone.addr = alloca ptr, align 8
  %localTime = alloca %"class.std::chrono::time_point.1", align 8
  %ref.tmp = alloca %"class.std::chrono::duration.2", align 8
  %sysTime = alloca %"class.std::chrono::time_point.3", align 8
  %ref.tmp8 = alloca %"class.std::chrono::time_point.3", align 8
  %agg.tmp = alloca %"class.std::chrono::time_point.1", align 8
  %exn.slot = alloca ptr, align 8
  %ehselector.slot = alloca i32, align 4
  %error = alloca ptr, align 8
  %error14 = alloca ptr, align 8
  %ref.tmp16 = alloca %"class.std::chrono::time_point.3", align 8
  %agg.tmp17 = alloca %"class.std::chrono::time_point.1", align 8
  %ref.tmp26 = alloca %"class.std::chrono::duration.2", align 8
  store ptr %this, ptr %this.addr, align 8
  store ptr %zone, ptr %zone.addr, align 8
  %this1 = load ptr, ptr %this.addr, align 8
  %seconds_ = getelementptr inbounds %"struct.facebook::velox::Timestamp", ptr %this1, i32 0, i32 0
  %0 = load i64, ptr %seconds_, align 8
  %cmp = icmp sgt i64 %0, -1096193692800
  %lnot = xor i1 %cmp, true
  br i1 %lnot, label %if.then, label %if.end

if.then:                                          ; preds = %entry
  call void @llvm.trap()
  br label %if.end

if.end:                                           ; preds = %if.then, %entry
  %seconds_2 = getelementptr inbounds %"struct.facebook::velox::Timestamp", ptr %this1, i32 0, i32 0
  %1 = load i64, ptr %seconds_2, align 8
  %cmp3 = icmp sle i64 %1, 9223372036854775
  %lnot4 = xor i1 %cmp3, true
  br i1 %lnot4, label %if.then5, label %if.end6

if.then5:                                         ; preds = %if.end
  call void @llvm.trap()
  br label %if.end6

if.end6:                                          ; preds = %if.then5, %if.end
  %seconds_7 = getelementptr inbounds %"struct.facebook::velox::Timestamp", ptr %this1, i32 0, i32 0
  call void @_ZNSt6chrono8durationIlSt5ratioILl1ELl1EEEC2IlvEERKT_(ptr noundef nonnull align 8 dereferenceable(8) %ref.tmp, ptr noundef nonnull align 8 dereferenceable(8) %seconds_7)
  call void @_ZNSt6chrono10time_pointIN4date7local_tENS_8durationIlSt5ratioILl1ELl1EEEEEC2ERKS6_(ptr noundef nonnull align 8 dereferenceable(8) %localTime, ptr noundef nonnull align 8 dereferenceable(8) %ref.tmp)
  call void @_ZNSt6chrono10time_pointINS_3_V212system_clockENS_8durationIlSt5ratioILl1ELl1EEEEEC2Ev(ptr noundef nonnull align 8 dereferenceable(8) %sysTime)
  %2 = load ptr, ptr %zone.addr, align 8
  call void @llvm.memcpy.p0.p0.i64(ptr align 8 %agg.tmp, ptr align 8 %localTime, i64 8, i1 false)
  %coerce.dive = getelementptr inbounds %"class.std::chrono::time_point.1", ptr %agg.tmp, i32 0, i32 0
  %coerce.dive9 = getelementptr inbounds %"class.std::chrono::duration.2", ptr %coerce.dive, i32 0, i32 0
  %3 = load i64, ptr %coerce.dive9, align 8
  %call = invoke i64 @_ZNK4date9time_zone6to_sysINSt6chrono8durationIlSt5ratioILl1ELl1EEEEEENS2_10time_pointINS2_3_V212system_clockENSt11common_typeIJT_S6_EE4typeEEENS7_INS_7local_tESB_EE(ptr noundef nonnull align 8 dereferenceable(64) %2, i64 %3)
          to label %invoke.cont unwind label %lpad

invoke.cont:                                      ; preds = %if.end6
  %coerce.dive10 = getelementptr inbounds %"class.std::chrono::time_point.3", ptr %ref.tmp8, i32 0, i32 0
  %coerce.dive11 = getelementptr inbounds %"class.std::chrono::duration.2", ptr %coerce.dive10, i32 0, i32 0
  store i64 %call, ptr %coerce.dive11, align 8
  call void @llvm.memcpy.p0.p0.i64(ptr align 8 %sysTime, ptr align 8 %ref.tmp8, i64 8, i1 false)
  br label %try.cont

lpad:                                             ; preds = %if.end6
  %4 = landingpad { ptr, i32 }
          catch ptr @_ZTIN4date20ambiguous_local_timeE
          catch ptr @_ZTIN4date22nonexistent_local_timeE
  %5 = extractvalue { ptr, i32 } %4, 0
  store ptr %5, ptr %exn.slot, align 8
  %6 = extractvalue { ptr, i32 } %4, 1
  store i32 %6, ptr %ehselector.slot, align 4
  br label %catch.dispatch

catch.dispatch:                                   ; preds = %lpad
  %sel = load i32, ptr %ehselector.slot, align 4
  %7 = call i32 @llvm.eh.typeid.for(ptr @_ZTIN4date20ambiguous_local_timeE) #10
  %matches = icmp eq i32 %sel, %7
  br i1 %matches, label %catch13, label %catch.fallthrough

catch13:                                          ; preds = %catch.dispatch
  %exn15 = load ptr, ptr %exn.slot, align 8
  %8 = call ptr @__cxa_begin_catch(ptr %exn15) #10
  store ptr %8, ptr %error14, align 8
  %9 = load ptr, ptr %zone.addr, align 8
  call void @llvm.memcpy.p0.p0.i64(ptr align 8 %agg.tmp17, ptr align 8 %localTime, i64 8, i1 false)
  %coerce.dive18 = getelementptr inbounds %"class.std::chrono::time_point.1", ptr %agg.tmp17, i32 0, i32 0
  %coerce.dive19 = getelementptr inbounds %"class.std::chrono::duration.2", ptr %coerce.dive18, i32 0, i32 0
  %10 = load i64, ptr %coerce.dive19, align 8
  %call22 = invoke i64 @_ZNK4date9time_zone6to_sysINSt6chrono8durationIlSt5ratioILl1ELl1EEEEEENS2_10time_pointINS2_3_V212system_clockENSt11common_typeIJT_S6_EE4typeEEENS7_INS_7local_tESB_EENS_6chooseE(ptr noundef nonnull align 8 dereferenceable(64) %9, i64 %10, i32 noundef 0)
          to label %invoke.cont21 unwind label %lpad20

invoke.cont21:                                    ; preds = %catch13
  %coerce.dive23 = getelementptr inbounds %"class.std::chrono::time_point.3", ptr %ref.tmp16, i32 0, i32 0
  %coerce.dive24 = getelementptr inbounds %"class.std::chrono::duration.2", ptr %coerce.dive23, i32 0, i32 0
  store i64 %call22, ptr %coerce.dive24, align 8
  call void @llvm.memcpy.p0.p0.i64(ptr align 8 %sysTime, ptr align 8 %ref.tmp16, i64 8, i1 false)
  call void @__cxa_end_catch()
  br label %try.cont

try.cont:                                         ; preds = %catch, %invoke.cont21, %invoke.cont
  %call27 = call i64 @_ZNKSt6chrono10time_pointINS_3_V212system_clockENS_8durationIlSt5ratioILl1ELl1EEEEE16time_since_epochEv(ptr noundef nonnull align 8 dereferenceable(8) %sysTime)
  %coerce.dive28 = getelementptr inbounds %"class.std::chrono::duration.2", ptr %ref.tmp26, i32 0, i32 0
  store i64 %call27, ptr %coerce.dive28, align 8
  %call29 = call noundef i64 @_ZNKSt6chrono8durationIlSt5ratioILl1ELl1EEE5countEv(ptr noundef nonnull align 8 dereferenceable(8) %ref.tmp26)
  %seconds_30 = getelementptr inbounds %"struct.facebook::velox::Timestamp", ptr %this1, i32 0, i32 0
  store i64 %call29, ptr %seconds_30, align 8
  ret void

catch.fallthrough:                                ; preds = %catch.dispatch
  %11 = call i32 @llvm.eh.typeid.for(ptr @_ZTIN4date22nonexistent_local_timeE) #10
  %matches12 = icmp eq i32 %sel, %11
  br i1 %matches12, label %catch, label %eh.resume

catch:                                            ; preds = %catch.fallthrough
  %exn = load ptr, ptr %exn.slot, align 8
  %12 = call ptr @__cxa_begin_catch(ptr %exn) #10
  store ptr %12, ptr %error, align 8
  call void @llvm.trap()
  call void @__cxa_end_catch()
  br label %try.cont

lpad20:                                           ; preds = %catch13
  %13 = landingpad { ptr, i32 }
          cleanup
  %14 = extractvalue { ptr, i32 } %13, 0
  store ptr %14, ptr %exn.slot, align 8
  %15 = extractvalue { ptr, i32 } %13, 1
  store i32 %15, ptr %ehselector.slot, align 4
  invoke void @__cxa_end_catch()
          to label %invoke.cont25 unwind label %terminate.lpad

invoke.cont25:                                    ; preds = %lpad20
  br label %eh.resume

eh.resume:                                        ; preds = %invoke.cont25, %catch.fallthrough
  %exn31 = load ptr, ptr %exn.slot, align 8
  %sel32 = load i32, ptr %ehselector.slot, align 4
  %lpad.val = insertvalue { ptr, i32 } poison, ptr %exn31, 0
  %lpad.val33 = insertvalue { ptr, i32 } %lpad.val, i32 %sel32, 1
  resume { ptr, i32 } %lpad.val33

terminate.lpad:                                   ; preds = %lpad20
  %16 = landingpad { ptr, i32 }
          catch ptr null
  %17 = extractvalue { ptr, i32 } %16, 0
  call void @__clang_call_terminate(ptr %17) #11
  unreachable
}