; Function Attrs: mustprogress uwtable
define void @_ZN8facebook5velox9Timestamp5toGMTERKN4date9time_zoneE(ptr nocapture noundef nonnull align 8 dereferenceable(16) %this, ptr noundef nonnull align 8 dereferenceable(64) %zone) local_unnamed_addr #2 align 2 personality ptr @__gxx_personality_v0 {
entry:
  %0 = load i64, ptr %this, align 8
  %cmp = icmp slt i64 %0, -1096193692799
  br i1 %cmp, label %if.then, label %if.end

if.then:                                          ; preds = %entry
  tail call void @llvm.trap()
  unreachable

if.end:                                           ; preds = %entry
  %cmp3 = icmp sgt i64 %0, 9223372036854775
  br i1 %cmp3, label %if.then5, label %if.end6

if.then5:                                         ; preds = %if.end
  tail call void @llvm.trap()
  unreachable

if.end6:                                          ; preds = %if.end
  %call.i3 = invoke i64 @_ZNK4date9time_zone11to_sys_implINSt6chrono8durationIlSt5ratioILl1ELl1EEEEEENS2_10time_pointINS2_3_V212system_clockENSt11common_typeIJT_S6_EE4typeEEENS7_INS_7local_tESB_EENS_6chooseESt17integral_constantIbLb1EE(ptr noundef nonnull align 8 dereferenceable(64) %zone, i64 %0, i32 noundef 0)
          to label %try.cont unwind label %lpad

lpad:                                             ; preds = %if.end6
  %1 = landingpad { ptr, i32 }
          catch ptr @_ZTIN4date20ambiguous_local_timeE
          catch ptr @_ZTIN4date22nonexistent_local_timeE
  %2 = extractvalue { ptr, i32 } %1, 0
  %3 = extractvalue { ptr, i32 } %1, 1
  %4 = tail call i32 @llvm.eh.typeid.for(ptr nonnull @_ZTIN4date20ambiguous_local_timeE) #14
  %matches = icmp eq i32 %3, %4
  br i1 %matches, label %catch13, label %catch.fallthrough

catch13:                                          ; preds = %lpad
  %5 = tail call ptr @__cxa_begin_catch(ptr %2) #14
  %call22 = invoke i64 @_ZNK4date9time_zone6to_sysINSt6chrono8durationIlSt5ratioILl1ELl1EEEEEENS2_10time_pointINS2_3_V212system_clockENSt11common_typeIJT_S6_EE4typeEEENS7_INS_7local_tESB_EENS_6chooseE(ptr noundef nonnull align 8 dereferenceable(64) %zone, i64 %0, i32 noundef 0)
          to label %invoke.cont21 unwind label %lpad20

invoke.cont21:                                    ; preds = %catch13
  tail call void @__cxa_end_catch()
  br label %try.cont

try.cont:                                         ; preds = %if.end6, %invoke.cont21
  %sysTime.sroa.0.0 = phi i64 [ %call22, %invoke.cont21 ], [ %call.i3, %if.end6 ]
  store i64 %sysTime.sroa.0.0, ptr %this, align 8
  ret void

catch.fallthrough:                                ; preds = %lpad
  %6 = tail call i32 @llvm.eh.typeid.for(ptr nonnull @_ZTIN4date22nonexistent_local_timeE) #14
  %matches12 = icmp eq i32 %3, %6
  br i1 %matches12, label %catch, label %eh.resume

catch:                                            ; preds = %catch.fallthrough
  %7 = tail call ptr @__cxa_begin_catch(ptr %2) #14
  tail call void @llvm.trap()
  unreachable

lpad20:                                           ; preds = %catch13
  %8 = landingpad { ptr, i32 }
          cleanup
  invoke void @__cxa_end_catch()
          to label %eh.resume unwind label %terminate.lpad

eh.resume:                                        ; preds = %lpad20, %catch.fallthrough
  %lpad.val33.merged = phi { ptr, i32 } [ %8, %lpad20 ], [ %1, %catch.fallthrough ]
  resume { ptr, i32 } %lpad.val33.merged

terminate.lpad:                                   ; preds = %lpad20
  %9 = landingpad { ptr, i32 }
          catch ptr null
  %10 = extractvalue { ptr, i32 } %9, 0
  tail call void @__clang_call_terminate(ptr %10) #15
  unreachable
}